target datalayout = "e-m:e-p270:32:32-p271:32:32-p272:64:64-i64:64-i128:128-f80:128-n8:16:32:64-S128"
target triple = "x86_64-pc-linux-gnu"

@.str.7 = private unnamed_addr constant [6 x i8] c"%s.%s\00", align 1

; Function Attrs: nounwind uwtable
define internal void @free_keep_errno(ptr noundef %0) #0 {
  %2 = alloca ptr, align 8
  %3 = alloca i32, align 4
  store ptr %0, ptr %2, align 8
  call void @llvm.lifetime.start.p0(i64 4, ptr %3) #7
  %4 = call ptr @__errno_location() #9
  %5 = load i32, ptr %4, align 4
  store i32 %5, ptr %3, align 4
  %6 = load ptr, ptr %2, align 8
  call void @free(ptr noundef %6) #7
  %7 = load i32, ptr %3, align 4
  %8 = call ptr @__errno_location() #9
  store i32 %7, ptr %8, align 4
  call void @llvm.lifetime.end.p0(i64 4, ptr %3) #7
  ret void
}

; Function Attrs: nounwind uwtable
define internal zeroext i1 @check_compressed_file(ptr noundef %0, ptr noundef %1, ptr noundef %2) #0 {
  %4 = alloca ptr, align 8
  %5 = alloca ptr, align 8
  %6 = alloca ptr, align 8
  store ptr %0, ptr %4, align 8
  store ptr %1, ptr %5, align 8
  store ptr %2, ptr %6, align 8
  %7 = load ptr, ptr %5, align 8
  %8 = load ptr, ptr %7, align 8
  call void @free_keep_errno(ptr noundef %8)
  %9 = load ptr, ptr %4, align 8
  %10 = load ptr, ptr %6, align 8
  %11 = call ptr (ptr, ...) @psprintf(ptr noundef @.str.7, ptr noundef %9, ptr noundef %10)
  %12 = load ptr, ptr %5, align 8
  store ptr %11, ptr %12, align 8
  %13 = load ptr, ptr %5, align 8
  %14 = load ptr, ptr %13, align 8
  %15 = call i32 @access(ptr noundef %14, i32 noundef 0) #7
  %16 = icmp eq i32 %15, 0
  ret i1 %16
}