; Function Attrs: nounwind uwtable
define internal fastcc noundef zeroext i1 @check_compressed_file(ptr noundef %0, ptr noundef nonnull captures(none) %1, ptr noundef %2) unnamed_addr #0 {
  %4 = load ptr, ptr %1, align 8
  %5 = tail call ptr @__errno_location() #11
  %6 = load i32, ptr %5, align 4
  tail call void @free(ptr noundef %4) #9
  store i32 %6, ptr %5, align 4
  %7 = tail call ptr (ptr, ...) @psprintf(ptr noundef nonnull @.str.7, ptr noundef %0, ptr noundef %2) #9
  store ptr %7, ptr %1, align 8
  %8 = tail call i32 @access(ptr noundef %7, i32 noundef 0) #9
  %9 = icmp eq i32 %8, 0
  ret i1 %9
}